(dp0
VServer
p1
Vcmsweb.cern.ch
p2
sVPort
p3
V
p4
sVRequestName
p5
V240917_161750:fnenna_crab_SkimDsPhiPi_2024eraE-v2_stream1_Mini_v3
p6
sVvoRole
p7
VNULL
p8
sVvoGroup
p9
g4
sVinstance
p10
Vprod
p11
sVOriginalConfig
p12
ccopy_reg
_reconstructor
p13
(cWMCore.Configuration
Configuration
p14
c__builtin__
object
p15
Ntp16
Rp17
(dp18
V_internal_sections
p19
(lp20
VGeneral
p21
aVJobType
p22
aVData
p23
aVSite
p24
aVUser
p25
aVDebug
p26
asg21
g13
(cWMCore.Configuration
ConfigSection
p27
g15
Ntp28
Rp29
(dp30
V_internal_documentation
p31
g4
sV_internal_name
p32
g21
sV_internal_settings
p33
c__builtin__
set
p34
((lp35
VtransferLogs
p36
aVtransferOutputs
p37
aVrequestName
p38
aVworkArea
p39
atp40
Rp41
sV_internal_docstrings
p42
(dp43
sV_internal_children
p44
g34
((lp45
tp46
Rp47
sV_internal_parent_ref
p48
NsV_internal_skipChecks
p49
I00
sg38
VSkimDsPhiPi_2024eraE-v2_stream1_Mini_v3
p50
sg39
Vcrab_projects
p51
sg37
I01
sg36
I00
sbsg22
g13
(g27
g15
Ntp52
Rp53
(dp54
g31
g4
sg32
g22
sg33
g34
((lp55
VpluginName
p56
aVallowUndistributedCMSSW
p57
aVpsetName
p58
atp59
Rp60
sg42
(dp61
sg44
g34
((lp62
tp63
Rp64
sg48
Nsg49
I00
sg56
VAnalysis
p65
sg58
V/eos/home-f/fnenna/tau3mu/CMSSW_14_0_12/src/SkimTools/SkimPhiPi/test/run_Data2024E-v2_DsPhiPiSkimAndTree_cfg.py
p66
sg57
I01
sbsg23
g13
(g27
g15
Ntp67
Rp68
(dp69
g31
g4
sg32
g23
sg33
g34
((lp70
VinputDBS
p71
aVsplitting
p72
aVoutputDatasetTag
p73
aVlumiMask
p74
aVinputDataset
p75
aVunitsPerJob
p76
atp77
Rp78
sg42
(dp79
sg44
g34
((lp80
tp81
Rp82
sg48
Nsg49
I00
sg75
V/ParkingDoubleMuonLowMass1/Run2024E-PromptReco-v2/MINIAOD
p83
sg71
Vglobal
p84
sg72
VLumiBased
p85
sg76
I50
sg74
Vhttps://cms-service-dqmdc.web.cern.ch/CAF/certification/Collisions24/Cert_Collisions2024_eraE_Golden.json
p86
sg73
g50
sbsg24
g13
(g27
g15
Ntp87
Rp88
(dp89
g31
g4
sg32
g24
sg33
g34
((lp90
VignoreGlobalBlacklist
p91
aVstorageSite
p92
atp93
Rp94
sg42
(dp95
sg44
g34
((lp96
tp97
Rp98
sg48
Nsg49
I00
sg92
VT2_IT_Bari
p99
sg91
I01
sbsg25
g13
(g27
g15
Ntp100
Rp101
(dp102
g31
g4
sg32
g25
sg33
g34
((lp103
tp104
Rp105
sg42
(dp106
sg44
g34
((lp107
tp108
Rp109
sg48
Nsg49
I00
sbsg26
g13
(g27
g15
Ntp110
Rp111
(dp112
g31
g4
sg32
g26
sg33
g34
((lp113
tp114
Rp115
sg42
(dp116
sg44
g34
((lp117
tp118
Rp119
sg48
Nsg49
I00
sbsbs.